; ModuleID = '9/789.c'
source_filename = "9/789.c"
target datalayout = "e-m:e-p270:32:32-p271:32:32-p272:64:64-i64:64-f80:128-n8:16:32:64-S128"
target triple = "x86_64-pc-linux-gnu"

%struct.patient = type { [10 x i8], i32 }

@.str = private unnamed_addr constant [3 x i8] c"%d\00", align 1
@.str.1 = private unnamed_addr constant [6 x i8] c"%s %d\00", align 1
@.str.2 = private unnamed_addr constant [4 x i8] c"%s\0A\00", align 1

; Function Attrs: noinline nounwind uwtable
define dso_local i32 @main() #0 {
  %1 = alloca i32, align 4
  %2 = alloca i32, align 4
  %3 = alloca i32, align 4
  %4 = alloca i32, align 4
  %5 = alloca i32, align 4
  %6 = alloca [100 x %struct.patient], align 16
  %7 = alloca %struct.patient, align 4
  store i32 0, i32* %1, align 4
  %8 = call i32 (i8*, ...) @__isoc99_scanf(i8* getelementptr inbounds ([3 x i8], [3 x i8]* @.str, i64 0, i64 0), i32* %2)
  store i32 0, i32* %3, align 4
  br label %9

9:                                                ; preds = %23, %0
  %10 = load i32, i32* %3, align 4
  %11 = load i32, i32* %2, align 4
  %12 = icmp slt i32 %10, %11
  br i1 %12, label %13, label %26

13:                                               ; preds = %9
  %14 = load i32, i32* %3, align 4
  %15 = sext i32 %14 to i64
  %16 = getelementptr inbounds [100 x %struct.patient], [100 x %struct.patient]* %6, i64 0, i64 %15
  %17 = getelementptr inbounds %struct.patient, %struct.patient* %16, i32 0, i32 0
  %18 = load i32, i32* %3, align 4
  %19 = sext i32 %18 to i64
  %20 = getelementptr inbounds [100 x %struct.patient], [100 x %struct.patient]* %6, i64 0, i64 %19
  %21 = getelementptr inbounds %struct.patient, %struct.patient* %20, i32 0, i32 1
  %22 = call i32 (i8*, ...) @__isoc99_scanf(i8* getelementptr inbounds ([6 x i8], [6 x i8]* @.str.1, i64 0, i64 0), [10 x i8]* %17, i32* %21)
  br label %23

23:                                               ; preds = %13
  %24 = load i32, i32* %3, align 4
  %25 = add nsw i32 %24, 1
  store i32 %25, i32* %3, align 4
  br label %9

26:                                               ; preds = %9
  store i32 0, i32* %3, align 4
  br label %27

27:                                               ; preds = %100, %26
  %28 = load i32, i32* %3, align 4
  %29 = load i32, i32* %2, align 4
  %30 = sub nsw i32 %29, 1
  %31 = icmp slt i32 %28, %30
  br i1 %31, label %32, label %103

32:                                               ; preds = %27
  %33 = load i32, i32* %3, align 4
  %34 = add nsw i32 %33, 1
  store i32 %34, i32* %4, align 4
  br label %35

35:                                               ; preds = %90, %32
  %36 = load i32, i32* %4, align 4
  %37 = load i32, i32* %2, align 4
  %38 = icmp slt i32 %36, %37
  br i1 %38, label %39, label %93

39:                                               ; preds = %35
  %40 = load i32, i32* %4, align 4
  %41 = sext i32 %40 to i64
  %42 = getelementptr inbounds [100 x %struct.patient], [100 x %struct.patient]* %6, i64 0, i64 %41
  %43 = getelementptr inbounds %struct.patient, %struct.patient* %42, i32 0, i32 1
  %44 = load i32, i32* %43, align 4
  %45 = load i32, i32* %3, align 4
  %46 = sext i32 %45 to i64
  %47 = getelementptr inbounds [100 x %struct.patient], [100 x %struct.patient]* %6, i64 0, i64 %46
  %48 = getelementptr inbounds %struct.patient, %struct.patient* %47, i32 0, i32 1
  %49 = load i32, i32* %48, align 4
  %50 = icmp sgt i32 %44, %49
  br i1 %50, label %51, label %89

51:                                               ; preds = %39
  %52 = load i32, i32* %4, align 4
  %53 = sext i32 %52 to i64
  %54 = getelementptr inbounds [100 x %struct.patient], [100 x %struct.patient]* %6, i64 0, i64 %53
  %55 = getelementptr inbounds %struct.patient, %struct.patient* %54, i32 0, i32 1
  %56 = load i32, i32* %55, align 4
  %57 = icmp sge i32 %56, 60
  br i1 %57, label %58, label %89

58:                                               ; preds = %51
  %59 = load i32, i32* %4, align 4
  store i32 %59, i32* %5, align 4
  br label %60

60:                                               ; preds = %85, %58
  %61 = load i32, i32* %5, align 4
  %62 = load i32, i32* %3, align 4
  %63 = icmp sgt i32 %61, %62
  br i1 %63, label %64, label %88

64:                                               ; preds = %60
  %65 = load i32, i32* %5, align 4
  %66 = sext i32 %65 to i64
  %67 = getelementptr inbounds [100 x %struct.patient], [100 x %struct.patient]* %6, i64 0, i64 %66
  %68 = bitcast %struct.patient* %7 to i8*
  %69 = bitcast %struct.patient* %67 to i8*
  call void @llvm.memcpy.p0i8.p0i8.i64(i8* align 4 %68, i8* align 16 %69, i64 16, i1 false)
  %70 = load i32, i32* %5, align 4
  %71 = sext i32 %70 to i64
  %72 = getelementptr inbounds [100 x %struct.patient], [100 x %struct.patient]* %6, i64 0, i64 %71
  %73 = load i32, i32* %5, align 4
  %74 = sub nsw i32 %73, 1
  %75 = sext i32 %74 to i64
  %76 = getelementptr inbounds [100 x %struct.patient], [100 x %struct.patient]* %6, i64 0, i64 %75
  %77 = bitcast %struct.patient* %72 to i8*
  %78 = bitcast %struct.patient* %76 to i8*
  call void @llvm.memcpy.p0i8.p0i8.i64(i8* align 16 %77, i8* align 16 %78, i64 16, i1 false)
  %79 = load i32, i32* %5, align 4
  %80 = sub nsw i32 %79, 1
  %81 = sext i32 %80 to i64
  %82 = getelementptr inbounds [100 x %struct.patient], [100 x %struct.patient]* %6, i64 0, i64 %81
  %83 = bitcast %struct.patient* %82 to i8*
  %84 = bitcast %struct.patient* %7 to i8*
  call void @llvm.memcpy.p0i8.p0i8.i64(i8* align 16 %83, i8* align 4 %84, i64 16, i1 false)
  br label %85

85:                                               ; preds = %64
  %86 = load i32, i32* %5, align 4
  %87 = add nsw i32 %86, -1
  store i32 %87, i32* %5, align 4
  br label %60

88:                                               ; preds = %60
  br label %89

89:                                               ; preds = %88, %51, %39
  br label %90

90:                                               ; preds = %89
  %91 = load i32, i32* %4, align 4
  %92 = add nsw i32 %91, 1
  store i32 %92, i32* %4, align 4
  br label %35

93:                                               ; preds = %35
  %94 = load i32, i32* %3, align 4
  %95 = sext i32 %94 to i64
  %96 = getelementptr inbounds [100 x %struct.patient], [100 x %struct.patient]* %6, i64 0, i64 %95
  %97 = getelementptr inbounds %struct.patient, %struct.patient* %96, i32 0, i32 0
  %98 = getelementptr inbounds [10 x i8], [10 x i8]* %97, i64 0, i64 0
  %99 = call i32 (i8*, ...) @printf(i8* getelementptr inbounds ([4 x i8], [4 x i8]* @.str.2, i64 0, i64 0), i8* %98)
  br label %100

100:                                              ; preds = %93
  %101 = load i32, i32* %3, align 4
  %102 = add nsw i32 %101, 1
  store i32 %102, i32* %3, align 4
  br label %27

103:                                              ; preds = %27
  %104 = load i32, i32* %2, align 4
  %105 = sub nsw i32 %104, 1
  %106 = sext i32 %105 to i64
  %107 = getelementptr inbounds [100 x %struct.patient], [100 x %struct.patient]* %6, i64 0, i64 %106
  %108 = getelementptr inbounds %struct.patient, %struct.patient* %107, i32 0, i32 0
  %109 = getelementptr inbounds [10 x i8], [10 x i8]* %108, i64 0, i64 0
  %110 = call i32 (i8*, ...) @printf(i8* getelementptr inbounds ([4 x i8], [4 x i8]* @.str.2, i64 0, i64 0), i8* %109)
  ret i32 0
}

declare dso_local i32 @__isoc99_scanf(i8*, ...) #1

; Function Attrs: argmemonly nounwind willreturn
declare void @llvm.memcpy.p0i8.p0i8.i64(i8* noalias nocapture writeonly, i8* noalias nocapture readonly, i64, i1 immarg) #2

declare dso_local i32 @printf(i8*, ...) #1


!llvm.module.flags = !{!0}
!llvm.ident = !{!1}

!0 = !{i32 1, !"wchar_size", i32 4}
!1 = !{!"clang version 10.0.0-4ubuntu1 "}
